target datalayout = "e-m:e-p270:32:32-p271:32:32-p272:64:64-i64:64-i128:128-f80:128-n8:16:32:64-S128"
target triple = "x86_64-pc-linux-gnu"

%struct.GroupNumRemap = type { i32 }
%struct._Node = type { %union.anon }
%union.anon = type { %struct.StrNode }
%struct.StrNode = type { %struct.NodeBase, ptr, ptr, i32, i32, [24 x i8] }
%struct.NodeBase = type { i32 }
%struct.ConsAltNode = type { %struct.NodeBase, ptr, ptr }
%struct.QtfrNode = type { %struct.NodeBase, i32, ptr, i32, i32, i32, i32, ptr, ptr, i32 }
%struct.EncloseNode = type { %struct.NodeBase, i32, i32, i32, i32, i32, ptr, i64, i64, i32, i32 }
%struct.BRefNode = type { %struct.NodeBase, i32, i32, [6 x i32], ptr, i32 }
%struct.AnchorNode = type { %struct.NodeBase, i32, ptr, i32, i32 }

; Function Attrs: nounwind sspstrong uwtable
define internal i32 @renumber_node_backref(ptr noundef %0, ptr noundef %1, i32 noundef %2) #0 {
  %4 = alloca i32, align 4
  %5 = alloca ptr, align 8
  %6 = alloca ptr, align 8
  %7 = alloca i32, align 4
  %8 = alloca i32, align 4
  %9 = alloca i32, align 4
  %10 = alloca i32, align 4
  %11 = alloca i32, align 4
  %12 = alloca ptr, align 8
  %13 = alloca ptr, align 8
  %14 = alloca i32, align 4
  store ptr %0, ptr %5, align 8, !tbaa !66
  store ptr %1, ptr %6, align 8, !tbaa !36
  store i32 %2, ptr %7, align 4, !tbaa !7
  call void @llvm.lifetime.start.p0(i64 4, ptr %8) #11
  call void @llvm.lifetime.start.p0(i64 4, ptr %9) #11
  call void @llvm.lifetime.start.p0(i64 4, ptr %10) #11
  call void @llvm.lifetime.start.p0(i64 4, ptr %11) #11
  call void @llvm.lifetime.start.p0(i64 8, ptr %12) #11
  call void @llvm.lifetime.start.p0(i64 8, ptr %13) #11
  %15 = load ptr, ptr %5, align 8, !tbaa !66
  %16 = getelementptr inbounds nuw %struct._Node, ptr %15, i32 0, i32 0
  store ptr %16, ptr %13, align 8, !tbaa !36
  %17 = load ptr, ptr %13, align 8, !tbaa !36
  %18 = getelementptr inbounds nuw %struct.BRefNode, ptr %17, i32 0, i32 1
  %19 = load i32, ptr %18, align 4, !tbaa !120
  %20 = and i32 %19, 2048
  %21 = icmp ne i32 %20, 0
  br i1 %21, label %23, label %22

22:                                               ; preds = %3
  store i32 -209, ptr %4, align 4
  store i32 1, ptr %14, align 4
  br label %82

23:                                               ; preds = %3
  %24 = load ptr, ptr %13, align 8, !tbaa !36
  %25 = getelementptr inbounds nuw %struct.BRefNode, ptr %24, i32 0, i32 2
  %26 = load i32, ptr %25, align 8, !tbaa !118
  store i32 %26, ptr %11, align 4, !tbaa !7
  %27 = load ptr, ptr %13, align 8, !tbaa !36
  %28 = getelementptr inbounds nuw %struct.BRefNode, ptr %27, i32 0, i32 4
  %29 = load ptr, ptr %28, align 8, !tbaa !116
  %30 = icmp eq ptr %29, null
  br i1 %30, label %31, label %35

31:                                               ; preds = %23
  %32 = load ptr, ptr %13, align 8, !tbaa !36
  %33 = getelementptr inbounds nuw %struct.BRefNode, ptr %32, i32 0, i32 3
  %34 = getelementptr inbounds [6 x i32], ptr %33, i64 0, i64 0
  store ptr %34, ptr %12, align 8, !tbaa !39
  br label %39

35:                                               ; preds = %23
  %36 = load ptr, ptr %13, align 8, !tbaa !36
  %37 = getelementptr inbounds nuw %struct.BRefNode, ptr %36, i32 0, i32 4
  %38 = load ptr, ptr %37, align 8, !tbaa !116
  store ptr %38, ptr %12, align 8, !tbaa !39
  br label %39

39:                                               ; preds = %35, %31
  store i32 0, ptr %8, align 4, !tbaa !7
  store i32 0, ptr %9, align 4, !tbaa !7
  br label %40

40:                                               ; preds = %75, %39
  %41 = load i32, ptr %8, align 4, !tbaa !7
  %42 = load i32, ptr %11, align 4, !tbaa !7
  %43 = icmp slt i32 %41, %42
  br i1 %43, label %44, label %78

44:                                               ; preds = %40
  %45 = load ptr, ptr %12, align 8, !tbaa !39
  %46 = load i32, ptr %8, align 4, !tbaa !7
  %47 = sext i32 %46 to i64
  %48 = getelementptr i32, ptr %45, i64 %47
  %49 = load i32, ptr %48, align 4, !tbaa !7
  %50 = load i32, ptr %7, align 4, !tbaa !7
  %51 = icmp sgt i32 %49, %50
  br i1 %51, label %52, label %53

52:                                               ; preds = %44
  store i32 -208, ptr %4, align 4
  store i32 1, ptr %14, align 4
  br label %82

53:                                               ; preds = %44
  %54 = load ptr, ptr %6, align 8, !tbaa !36
  %55 = load ptr, ptr %12, align 8, !tbaa !39
  %56 = load i32, ptr %8, align 4, !tbaa !7
  %57 = sext i32 %56 to i64
  %58 = getelementptr i32, ptr %55, i64 %57
  %59 = load i32, ptr %58, align 4, !tbaa !7
  %60 = sext i32 %59 to i64
  %61 = getelementptr %struct.GroupNumRemap, ptr %54, i64 %60
  %62 = getelementptr inbounds nuw %struct.GroupNumRemap, ptr %61, i32 0, i32 0
  %63 = load i32, ptr %62, align 4, !tbaa !85
  store i32 %63, ptr %10, align 4, !tbaa !7
  %64 = load i32, ptr %10, align 4, !tbaa !7
  %65 = icmp sgt i32 %64, 0
  br i1 %65, label %66, label %74

66:                                               ; preds = %53
  %67 = load i32, ptr %10, align 4, !tbaa !7
  %68 = load ptr, ptr %12, align 8, !tbaa !39
  %69 = load i32, ptr %9, align 4, !tbaa !7
  %70 = sext i32 %69 to i64
  %71 = getelementptr i32, ptr %68, i64 %70
  store i32 %67, ptr %71, align 4, !tbaa !7
  %72 = load i32, ptr %9, align 4, !tbaa !7
  %73 = add i32 %72, 1
  store i32 %73, ptr %9, align 4, !tbaa !7
  br label %74

74:                                               ; preds = %66, %53
  br label %75

75:                                               ; preds = %74
  %76 = load i32, ptr %8, align 4, !tbaa !7
  %77 = add i32 %76, 1
  store i32 %77, ptr %8, align 4, !tbaa !7
  br label %40, !llvm.loop !194

78:                                               ; preds = %40
  %79 = load i32, ptr %9, align 4, !tbaa !7
  %80 = load ptr, ptr %13, align 8, !tbaa !36
  %81 = getelementptr inbounds nuw %struct.BRefNode, ptr %80, i32 0, i32 2
  store i32 %79, ptr %81, align 8, !tbaa !118
  store i32 0, ptr %4, align 4
  store i32 1, ptr %14, align 4
  br label %82

82:                                               ; preds = %78, %52, %22
  call void @llvm.lifetime.end.p0(i64 8, ptr %13) #11
  call void @llvm.lifetime.end.p0(i64 8, ptr %12) #11
  call void @llvm.lifetime.end.p0(i64 4, ptr %11) #11
  call void @llvm.lifetime.end.p0(i64 4, ptr %10) #11
  call void @llvm.lifetime.end.p0(i64 4, ptr %9) #11
  call void @llvm.lifetime.end.p0(i64 4, ptr %8) #11
  %83 = load i32, ptr %4, align 4
  ret i32 %83
}

; Function Attrs: nounwind sspstrong uwtable
define internal i32 @renumber_by_map(ptr noundef %0, ptr noundef %1, i32 noundef %2) #0 {
  %4 = alloca i32, align 4
  %5 = alloca ptr, align 8
  %6 = alloca ptr, align 8
  %7 = alloca i32, align 4
  %8 = alloca i32, align 4
  %9 = alloca ptr, align 8
  %10 = alloca i32, align 4
  store ptr %0, ptr %5, align 8, !tbaa !66
  store ptr %1, ptr %6, align 8, !tbaa !36
  store i32 %2, ptr %7, align 4, !tbaa !7
  call void @llvm.lifetime.start.p0(i64 4, ptr %8) #11
  store i32 0, ptr %8, align 4, !tbaa !7
  %11 = load ptr, ptr %5, align 8, !tbaa !66
  %12 = getelementptr inbounds nuw %struct._Node, ptr %11, i32 0, i32 0
  %13 = getelementptr inbounds nuw %struct.NodeBase, ptr %12, i32 0, i32 0
  %14 = load i32, ptr %13, align 8, !tbaa !38
  switch i32 %14, label %99 [
    i32 8, label %15
    i32 9, label %15
    i32 5, label %36
    i32 6, label %44
    i32 4, label %79
    i32 7, label %84
  ]

15:                                               ; preds = %3, %3
  br label %16

16:                                               ; preds = %33, %15
  %17 = load ptr, ptr %5, align 8, !tbaa !66
  %18 = getelementptr inbounds nuw %struct._Node, ptr %17, i32 0, i32 0
  %19 = getelementptr inbounds nuw %struct.ConsAltNode, ptr %18, i32 0, i32 1
  %20 = load ptr, ptr %19, align 8, !tbaa !38
  %21 = load ptr, ptr %6, align 8, !tbaa !36
  %22 = load i32, ptr %7, align 4, !tbaa !7
  %23 = call i32 @renumber_by_map(ptr noundef %20, ptr noundef %21, i32 noundef %22)
  store i32 %23, ptr %8, align 4, !tbaa !7
  br label %24

24:                                               ; preds = %16
  %25 = load i32, ptr %8, align 4, !tbaa !7
  %26 = icmp eq i32 %25, 0
  br i1 %26, label %27, label %33

27:                                               ; preds = %24
  %28 = load ptr, ptr %5, align 8, !tbaa !66
  %29 = getelementptr inbounds nuw %struct._Node, ptr %28, i32 0, i32 0
  %30 = getelementptr inbounds nuw %struct.ConsAltNode, ptr %29, i32 0, i32 2
  %31 = load ptr, ptr %30, align 8, !tbaa !38
  store ptr %31, ptr %5, align 8, !tbaa !66
  %32 = icmp ne ptr %31, null
  br label %33

33:                                               ; preds = %27, %24
  %34 = phi i1 [ false, %24 ], [ %32, %27 ]
  br i1 %34, label %16, label %35, !llvm.loop !193

35:                                               ; preds = %33
  br label %100

36:                                               ; preds = %3
  %37 = load ptr, ptr %5, align 8, !tbaa !66
  %38 = getelementptr inbounds nuw %struct._Node, ptr %37, i32 0, i32 0
  %39 = getelementptr inbounds nuw %struct.QtfrNode, ptr %38, i32 0, i32 2
  %40 = load ptr, ptr %39, align 8, !tbaa !38
  %41 = load ptr, ptr %6, align 8, !tbaa !36
  %42 = load i32, ptr %7, align 4, !tbaa !7
  %43 = call i32 @renumber_by_map(ptr noundef %40, ptr noundef %41, i32 noundef %42)
  store i32 %43, ptr %8, align 4, !tbaa !7
  br label %100

44:                                               ; preds = %3
  call void @llvm.lifetime.start.p0(i64 8, ptr %9) #11
  %45 = load ptr, ptr %5, align 8, !tbaa !66
  %46 = getelementptr inbounds nuw %struct._Node, ptr %45, i32 0, i32 0
  store ptr %46, ptr %9, align 8, !tbaa !36
  %47 = load ptr, ptr %9, align 8, !tbaa !36
  %48 = getelementptr inbounds nuw %struct.EncloseNode, ptr %47, i32 0, i32 2
  %49 = load i32, ptr %48, align 8, !tbaa !133
  %50 = icmp eq i32 %49, 8
  br i1 %50, label %51, label %69

51:                                               ; preds = %44
  %52 = load ptr, ptr %9, align 8, !tbaa !36
  %53 = getelementptr inbounds nuw %struct.EncloseNode, ptr %52, i32 0, i32 3
  %54 = load i32, ptr %53, align 4, !tbaa !134
  %55 = load i32, ptr %7, align 4, !tbaa !7
  %56 = icmp sgt i32 %54, %55
  br i1 %56, label %57, label %58

57:                                               ; preds = %51
  store i32 -208, ptr %4, align 4
  store i32 1, ptr %10, align 4
  br label %76

58:                                               ; preds = %51
  %59 = load ptr, ptr %6, align 8, !tbaa !36
  %60 = load ptr, ptr %9, align 8, !tbaa !36
  %61 = getelementptr inbounds nuw %struct.EncloseNode, ptr %60, i32 0, i32 3
  %62 = load i32, ptr %61, align 4, !tbaa !134
  %63 = sext i32 %62 to i64
  %64 = getelementptr %struct.GroupNumRemap, ptr %59, i64 %63
  %65 = getelementptr inbounds nuw %struct.GroupNumRemap, ptr %64, i32 0, i32 0
  %66 = load i32, ptr %65, align 4, !tbaa !85
  %67 = load ptr, ptr %9, align 8, !tbaa !36
  %68 = getelementptr inbounds nuw %struct.EncloseNode, ptr %67, i32 0, i32 3
  store i32 %66, ptr %68, align 4, !tbaa !134
  br label %69

69:                                               ; preds = %58, %44
  %70 = load ptr, ptr %9, align 8, !tbaa !36
  %71 = getelementptr inbounds nuw %struct.EncloseNode, ptr %70, i32 0, i32 6
  %72 = load ptr, ptr %71, align 8, !tbaa !112
  %73 = load ptr, ptr %6, align 8, !tbaa !36
  %74 = load i32, ptr %7, align 4, !tbaa !7
  %75 = call i32 @renumber_by_map(ptr noundef %72, ptr noundef %73, i32 noundef %74)
  store i32 %75, ptr %8, align 4, !tbaa !7
  store i32 0, ptr %10, align 4
  br label %76

76:                                               ; preds = %69, %57
  call void @llvm.lifetime.end.p0(i64 8, ptr %9) #11
  %77 = load i32, ptr %10, align 4
  switch i32 %77, label %102 [
    i32 0, label %78
  ]

78:                                               ; preds = %76
  br label %100

79:                                               ; preds = %3
  %80 = load ptr, ptr %5, align 8, !tbaa !66
  %81 = load ptr, ptr %6, align 8, !tbaa !36
  %82 = load i32, ptr %7, align 4, !tbaa !7
  %83 = call i32 @renumber_node_backref(ptr noundef %80, ptr noundef %81, i32 noundef %82)
  store i32 %83, ptr %8, align 4, !tbaa !7
  br label %100

84:                                               ; preds = %3
  %85 = load ptr, ptr %5, align 8, !tbaa !66
  %86 = getelementptr inbounds nuw %struct._Node, ptr %85, i32 0, i32 0
  %87 = getelementptr inbounds nuw %struct.AnchorNode, ptr %86, i32 0, i32 2
  %88 = load ptr, ptr %87, align 8, !tbaa !38
  %89 = icmp ne ptr %88, null
  br i1 %89, label %90, label %98

90:                                               ; preds = %84
  %91 = load ptr, ptr %5, align 8, !tbaa !66
  %92 = getelementptr inbounds nuw %struct._Node, ptr %91, i32 0, i32 0
  %93 = getelementptr inbounds nuw %struct.AnchorNode, ptr %92, i32 0, i32 2
  %94 = load ptr, ptr %93, align 8, !tbaa !38
  %95 = load ptr, ptr %6, align 8, !tbaa !36
  %96 = load i32, ptr %7, align 4, !tbaa !7
  %97 = call i32 @renumber_by_map(ptr noundef %94, ptr noundef %95, i32 noundef %96)
  store i32 %97, ptr %8, align 4, !tbaa !7
  br label %98

98:                                               ; preds = %90, %84
  br label %100

99:                                               ; preds = %3
  br label %100

100:                                              ; preds = %99, %98, %79, %78, %36, %35
  %101 = load i32, ptr %8, align 4, !tbaa !7
  store i32 %101, ptr %4, align 4
  store i32 1, ptr %10, align 4
  br label %102

102:                                              ; preds = %100, %76
  call void @llvm.lifetime.end.p0(i64 4, ptr %8) #11
  %103 = load i32, ptr %4, align 4
  ret i32 %103
}