; Function Attrs: nofree nosync nounwind sspstrong memory(readwrite, inaccessiblemem: none) uwtable
define internal fastcc range(i32 -209, 1) i32 @renumber_by_map(ptr noundef captures(none) %0, ptr noundef nonnull readonly captures(none) %1, i32 noundef %2) unnamed_addr #13 {
  br label %tailrecurse

tailrecurse:                                      ; preds = %tailrecurse.backedge, %3
  %.tr = phi ptr [ %0, %3 ], [ %.tr.be, %tailrecurse.backedge ]
  %4 = load i32, ptr %.tr, align 8, !tbaa !34
  switch i32 %4, label %.critedge [
    i32 8, label %.preheader
    i32 9, label %.preheader
    i32 5, label %tailrecurse.backedge.sink.split
    i32 6, label %15
    i32 4, label %27
    i32 7, label %52
  ]

.preheader:                                       ; preds = %tailrecurse, %tailrecurse
  br label %5

5:                                                ; preds = %.preheader, %10
  %.031 = phi ptr [ %12, %10 ], [ %.tr, %.preheader ]
  %6 = getelementptr inbounds nuw i8, ptr %.031, i64 8
  %7 = load ptr, ptr %6, align 8, !tbaa !34
  %8 = tail call fastcc i32 @renumber_by_map(ptr noundef %7, ptr noundef %1, i32 noundef %2)
  %9 = icmp eq i32 %8, 0
  br i1 %9, label %10, label %.critedge

10:                                               ; preds = %5
  %11 = getelementptr inbounds nuw i8, ptr %.031, i64 16
  %12 = load ptr, ptr %11, align 8, !tbaa !34
  %.not37 = icmp eq ptr %12, null
  br i1 %.not37, label %.critedge, label %5, !llvm.loop !226

tailrecurse.backedge.sink.split:                  ; preds = %tailrecurse, %23, %15
  %.sink58 = phi i64 [ 24, %15 ], [ 24, %23 ], [ 8, %tailrecurse ]
  %13 = getelementptr inbounds nuw i8, ptr %.tr, i64 %.sink58
  %14 = load ptr, ptr %13, align 8, !tbaa !34
  br label %tailrecurse.backedge

tailrecurse.backedge:                             ; preds = %tailrecurse.backedge.sink.split, %52
  %.tr.be = phi ptr [ %54, %52 ], [ %14, %tailrecurse.backedge.sink.split ]
  br label %tailrecurse

15:                                               ; preds = %tailrecurse
  %16 = getelementptr inbounds nuw i8, ptr %.tr, i64 8
  %17 = load i32, ptr %16, align 8, !tbaa !152
  %18 = icmp eq i32 %17, 8
  br i1 %18, label %19, label %tailrecurse.backedge.sink.split

19:                                               ; preds = %15
  %20 = getelementptr inbounds nuw i8, ptr %.tr, i64 12
  %21 = load i32, ptr %20, align 4, !tbaa !183
  %22 = icmp sgt i32 %21, %2
  br i1 %22, label %.critedge, label %23

23:                                               ; preds = %19
  %24 = sext i32 %21 to i64
  %25 = getelementptr %struct.GroupNumRemap, ptr %1, i64 %24
  %26 = load i32, ptr %25, align 4, !tbaa !123
  store i32 %26, ptr %20, align 4, !tbaa !183
  br label %tailrecurse.backedge.sink.split

27:                                               ; preds = %tailrecurse
  %28 = getelementptr inbounds nuw i8, ptr %.tr, i64 4
  %29 = load i32, ptr %28, align 4, !tbaa !176
  %30 = and i32 %29, 2048
  %.not.i = icmp eq i32 %30, 0
  br i1 %.not.i, label %.critedge, label %31

31:                                               ; preds = %27
  %32 = getelementptr inbounds nuw i8, ptr %.tr, i64 8
  %33 = load i32, ptr %32, align 8, !tbaa !174
  %34 = getelementptr inbounds nuw i8, ptr %.tr, i64 40
  %35 = load ptr, ptr %34, align 8, !tbaa !172
  %36 = icmp eq ptr %35, null
  %37 = getelementptr inbounds nuw i8, ptr %.tr, i64 12
  %.022.i = select i1 %36, ptr %37, ptr %35
  %38 = icmp sgt i32 %33, 0
  br i1 %38, label %.lr.ph.preheader.i, label %._crit_edge.i

.lr.ph.preheader.i:                               ; preds = %31
  %wide.trip.count.i = zext nneg i32 %33 to i64
  br label %.lr.ph.i

.lr.ph.i:                                         ; preds = %51, %.lr.ph.preheader.i
  %indvars.iv.i = phi i64 [ 0, %.lr.ph.preheader.i ], [ %indvars.iv.next.i, %51 ]
  %.02429.i = phi i32 [ 0, %.lr.ph.preheader.i ], [ %.1.i, %51 ]
  %39 = getelementptr i32, ptr %.022.i, i64 %indvars.iv.i
  %40 = load i32, ptr %39, align 4, !tbaa !7
  %41 = icmp sgt i32 %40, %2
  br i1 %41, label %.critedge, label %42

42:                                               ; preds = %.lr.ph.i
  %43 = sext i32 %40 to i64
  %44 = getelementptr %struct.GroupNumRemap, ptr %1, i64 %43
  %45 = load i32, ptr %44, align 4, !tbaa !123
  %46 = icmp sgt i32 %45, 0
  br i1 %46, label %47, label %51

47:                                               ; preds = %42
  %48 = sext i32 %.02429.i to i64
  %49 = getelementptr i32, ptr %.022.i, i64 %48
  store i32 %45, ptr %49, align 4, !tbaa !7
  %50 = add i32 %.02429.i, 1
  br label %51

51:                                               ; preds = %47, %42
  %.1.i = phi i32 [ %50, %47 ], [ %.02429.i, %42 ]
  %indvars.iv.next.i = add nuw nsw i64 %indvars.iv.i, 1
  %exitcond.not.i = icmp eq i64 %indvars.iv.next.i, %wide.trip.count.i
  br i1 %exitcond.not.i, label %._crit_edge.i, label %.lr.ph.i, !llvm.loop !227

._crit_edge.i:                                    ; preds = %51, %31
  %.024.lcssa.i = phi i32 [ 0, %31 ], [ %.1.i, %51 ]
  store i32 %.024.lcssa.i, ptr %32, align 8, !tbaa !174
  br label %.critedge

52:                                               ; preds = %tailrecurse
  %53 = getelementptr inbounds nuw i8, ptr %.tr, i64 8
  %54 = load ptr, ptr %53, align 8, !tbaa !34
  %.not = icmp eq ptr %54, null
  br i1 %.not, label %.critedge, label %tailrecurse.backedge

.critedge:                                        ; preds = %19, %52, %tailrecurse, %.lr.ph.i, %10, %5, %._crit_edge.i, %27
  %.1 = phi i32 [ 0, %._crit_edge.i ], [ -209, %27 ], [ %8, %5 ], [ 0, %10 ], [ -208, %.lr.ph.i ], [ -208, %19 ], [ 0, %52 ], [ 0, %tailrecurse ]
  ret i32 %.1
}